; Function Attrs: mustprogress uwtable
define hidden noundef zeroext i1 @_ZN4cvc58internal5proof30AletheProofPostprocessCallback16shouldUpdatePostESt10shared_ptrINS0_9ProofNodeEERKSt6vectorINS0_12NodeTemplateILb1EEESaIS8_EE(ptr noundef nonnull readonly align 8 captures(none) dereferenceable(96) %0, ptr noundef readonly captures(none) %1, ptr nonnull readnone align 8 captures(none) %2) unnamed_addr #6 align 2 personality ptr @__gxx_personality_v0 {
  %4 = alloca %"class.cvc5::internal::NodeTemplate", align 8
  %5 = getelementptr inbounds nuw i8, ptr %0, i64 40
  %6 = load i64, ptr %5, align 8, !tbaa !26
  %7 = icmp eq i64 %6, 0
  br i1 %7, label %8, label %switch.edge

8:                                                ; preds = %3
  %9 = load ptr, ptr %1, align 8, !tbaa !47
  %10 = tail call noundef nonnull align 8 dereferenceable(24) ptr @_ZNK4cvc58internal9ProofNode12getArgumentsEv(ptr noundef nonnull align 8 dereferenceable(65) %9)
  %11 = load ptr, ptr %10, align 8, !tbaa !52
  %12 = getelementptr inbounds nuw i8, ptr %10, i64 8
  %13 = load ptr, ptr %12, align 8, !tbaa !52
  %14 = icmp eq ptr %11, %13
  br i1 %14, label %switch.edge, label %15

15:                                               ; preds = %8
  %16 = load ptr, ptr %1, align 8, !tbaa !47
  %17 = tail call noundef nonnull align 8 dereferenceable(24) ptr @_ZNK4cvc58internal9ProofNode12getArgumentsEv(ptr noundef nonnull align 8 dereferenceable(65) %16)
  %18 = load ptr, ptr %17, align 8, !tbaa !54
  %19 = load ptr, ptr %18, align 8, !tbaa !39
  store ptr %19, ptr %4, align 8, !tbaa !39
  %20 = load i64, ptr %19, align 8
  %21 = lshr i64 %20, 40
  %22 = trunc nuw nsw i64 %21 to i32
  %23 = and i32 %22, 1048575
  %24 = icmp samesign ult i32 %23, 1048574
  br i1 %24, label %25, label %30, !prof !41

25:                                               ; preds = %15
  %26 = add i64 %20, 1099511627776
  %27 = and i64 %26, 1152920405095219200
  %28 = and i64 %20, -1152920405095219201
  %29 = or disjoint i64 %27, %28
  store i64 %29, ptr %19, align 8
  br label %_ZN4cvc58internal12NodeTemplateILb1EEC2ERKS2_.exit

30:                                               ; preds = %15
  %31 = icmp eq i32 %23, 1048574
  br i1 %31, label %32, label %_ZN4cvc58internal12NodeTemplateILb1EEC2ERKS2_.exit, !prof !40

32:                                               ; preds = %30
  %33 = or i64 %20, 1152920405095219200
  store i64 %33, ptr %19, align 8
  tail call void @_ZN4cvc58internal4expr9NodeValue20markRefCountMaxedOutEv(ptr noundef nonnull align 8 dereferenceable(24) %19)
  br label %_ZN4cvc58internal12NodeTemplateILb1EEC2ERKS2_.exit

_ZN4cvc58internal12NodeTemplateILb1EEC2ERKS2_.exit: ; preds = %25, %30, %32
  %34 = invoke noundef i32 @_ZN4cvc58internal5proof13getAletheRuleENS0_12NodeTemplateILb1EEE(ptr noundef nonnull %4)
          to label %35 unwind label %50

35:                                               ; preds = %_ZN4cvc58internal12NodeTemplateILb1EEC2ERKS2_.exit
  %36 = load ptr, ptr %4, align 8, !tbaa !39
  %37 = load i64, ptr %36, align 8
  %38 = and i64 %37, 1152920405095219200
  %.not.i.i = icmp eq i64 %38, 1152920405095219200
  br i1 %.not.i.i, label %_ZN4cvc58internal12NodeTemplateILb1EED2Ev.exit, label %39, !prof !40

39:                                               ; preds = %35
  %40 = add i64 %37, 1152920405095219200
  %41 = and i64 %40, 1152920405095219200
  %42 = and i64 %37, -1152920405095219201
  %43 = or disjoint i64 %41, %42
  store i64 %43, ptr %36, align 8
  %44 = icmp eq i64 %41, 0
  br i1 %44, label %45, label %_ZN4cvc58internal12NodeTemplateILb1EED2Ev.exit, !prof !40

45:                                               ; preds = %39
  invoke void @_ZN4cvc58internal4expr9NodeValue15markForDeletionEv(ptr noundef nonnull align 8 dereferenceable(24) %36)
          to label %_ZN4cvc58internal12NodeTemplateILb1EED2Ev.exit unwind label %46

46:                                               ; preds = %45
  %47 = landingpad { ptr, i32 }
          catch ptr null
  %48 = extractvalue { ptr, i32 } %47, 0
  call void @__clang_call_terminate(ptr %48) #27
  unreachable

_ZN4cvc58internal12NodeTemplateILb1EED2Ev.exit:   ; preds = %35, %39, %45
  %switch.tableidx = add i32 %34, -45
  %49 = icmp ult i32 %switch.tableidx, 53
  br i1 %49, label %switch.lookup, label %switch.edge

50:                                               ; preds = %_ZN4cvc58internal12NodeTemplateILb1EEC2ERKS2_.exit
  %51 = landingpad { ptr, i32 }
          cleanup
  call void @_ZN4cvc58internal12NodeTemplateILb1EED2Ev(ptr noundef nonnull align 8 dereferenceable(8) %4) #25
  resume { ptr, i32 } %51

switch.lookup:                                    ; preds = %_ZN4cvc58internal12NodeTemplateILb1EED2Ev.exit
  %switch.cast = zext nneg i32 %switch.tableidx to i53
  %switch.downshift = lshr i53 -4503599560261631, %switch.cast
  %switch.masked = trunc i53 %switch.downshift to i1
  br label %switch.edge

switch.edge:                                      ; preds = %_ZN4cvc58internal12NodeTemplateILb1EED2Ev.exit, %switch.lookup, %3, %8
  %.0 = phi i1 [ false, %8 ], [ false, %3 ], [ %switch.masked, %switch.lookup ], [ false, %_ZN4cvc58internal12NodeTemplateILb1EED2Ev.exit ]
  ret i1 %.0
}